(dp1
V10.1.1.41.5777
p2
(lp3
Vand
p4
aVeffici
p5
aVrender
p6
aVprocess
p7
aVnatur
p8
aVis
p9
aVphenomena
p10
aVbound
p11
aVenclos
p12
aVresult
p13
aVconvex
p14
aVhierarchi
p15
aVsimpl
p16
aVspeed
p17
aVray
p18
aVuse
p19
aVfor
p20
aVgraph
p21
aVcsg
p22
aV1
aVto
p23
aVother
p24
aVwhich
p25
aVbasic
p26
aVtest
p27
aVtype
p28
aVplant
p29
aVtrace
p30
aVoptim
p31
aVhull
p32
aVobject
p33
aVshown
p34
aVidea
p35
aVbefor
p36
aVvolum
p37
aVkey
p38
aVappli
p39
aVintroduct
p40
aVa
aVgraphic
p41
aVword
p42
aValgorithm
p43
aVcyclic
p44
aVof
p45
aVlater
p46
aVup
p47
aVcalcul
p48
aVallow
p49
aVmani
p50
aVthe
p51
aVfirst
p52
aVare
p53
asV10.1.1.126.2887
p54
(lp55
Vand
p56
aVlater
p57
aVin
p58
aVit
p59
aVan
p60
aVnot
p61
aVrate
p62
aVare
p63
aVhave
p64
aVtabl
p65
aVif
p66
aVprioriti
p67
aVuse
p68
aVmemori
p69
aVthat
p70
aVleast
p71
aVcach
p72
aV1
aV4
aVincreas
p73
aVpgbh
p74
aVhas
p75
aVhigher
p76
aVglobal
p77
aVhit
p78
aVnormal
p79
aVbuffer
p80
aVfree
p81
aVbecaus
p82
aVreleas
p83
aVwith
p84
aVthan
p85
aVrecent
p86
aVprime
p87
aVpossibl
p88
aVof
p89
aVno
p90
aVlist
p91
aVwere
p92
aVthe
p93
aVblock
p94
aVfirst
p95
asV10.1.1.3.6848
p96
(lp97
Vand
p98
aVpre
p99
aVdomain
p100
aVcomput
p101
aVrender
p102
aVpoint
p103
aVprocess
p104
aVis
p105
aVresampl
p106
aVacceler
p107
aVtransform
p108
aVfour
p109
aVas
p110
aVpaper
p111
aVdone
p112
aVare
p113
aVrun
p114
aVin
p115
aVchang
p116
aVextract
p117
aVframer
p118
aVprevious
p119
aVtextur
p120
aVor
p121
aVdiffer
p122
aVslice
p123
aVfrom
p124
aVtechniqu
p125
aVcompar
p126
aVdata
p127
aVinteract
p128
aVfourier
p129
aVthree
p130
aVfast
p131
aVdiscuss
p132
aVto
p133
aVaccord
p134
aVcomplex
p135
aVimplement
p136
aVinvers
p137
aVfactor
p138
aVhardwar
p139
aVgpu
p140
aVout
p141
aVfvr
p142
aVprogram
p143
aVcomplet
p144
aVmap
p145
aVpipelin
p146
aVhigh
p147
aVhartley
p148
aVoveral
p149
aVuse
p150
aVback
p151
aVstep
p152
aVgraphic
p153
aVvolum
p154
aVprogramm
p155
aVrepres
p156
aVwith
p157
aVby
p158
aVstage
p159
aVa
aVon
p160
aVlower
p161
aVscheme
p162
aV17
p163
aValgorithm
p164
aVinterpol
p165
aVthis
p166
aVfrequenc
p167
aVinto
p168
aVwork
p169
aVshader
p170
aVdimension
p171
aVproject
p172
aVachiev
p173
aVfor
p174
aVspatial
p175
aVof
p176
aVthrough
p177
aVthe
p178
aV3d
p179
aVother
p180
aVfirst
p181
asV10.1.1.129.9001
p182
(lp183
Vand
p184
aVcontrol
p185
aVall
p186
aVcomput
p187
aVshow
p188
aVnatur
p189
aVis
p190
aVin
p191
aVit
p192
aVconnect
p193
aVas
p194
aVmodel
p195
aVmotiv
p196
aVare
p197
aVhaptic
p198
aVour
p199
aVexist
p200
aVstorag
p201
aVsever
p202
aVif
p203
aVeven
p204
aVbetter
p205
aVdiffer
p206
aVdefinit
p207
aVfor
p208
aVdesign
p209
aVfunction
p210
aVinteract
p211
aVhybrid
p212
aVsystem
p213
aVthe
p214
aVdelay
p215
aVto
p216
aVwhen
p217
aVcommunic
p218
aVbetween
p219
aVcondit
p220
aVtherefor
p221
aVteleoper
p222
aVsatisfi
p223
aVchannel
p224
aVmode
p225
aVpassiv
p226
aVbe
p227
aVwe
p228
aVdesir
p229
aVthat
p230
aVeach
p231
aVreact
p232
aVmechan
p233
aVuser
p234
aVfound
p235
aVby
p236
aVoper
p237
aVcommon
p238
aVa
aVstabil
p239
aVaccount
p240
aVappropri
p241
aVtradit
p242
aVguarante
p243
aVof
p244
aVwork
p245
aVrequir
p246
aVprovid
p247
aVswitch
p248
aVcan
p249
aVtime
p250
aVaction
p251
aVthrough
p252
aVproblem
p253
aVwhere
p254
aVnotion
p255
aVpropos
p256
asV10.1.1.48.1139
p257
(lp258
Vhelp
p259
aVshow
p260
aVlack
p261
aVpaper
p262
aVempir
p263
aVelm
p264
aVto
p265
aVprogram
p266
aVintroduc
p267
aVelectron
p268
aVnow
p269
aVdiscuss
p270
aVlisp
p271
aVthis
p272
aVachiev
p273
aVthe
p274
aVwww
p275
aVart
p276
aVintellig
p277
aVindividu
p278
aVknowledg
p279
aVup
p280
aVare
p281
aVbest
p282
aVoverlay
p283
aVaccess
p284
aVadapt
p285
aVbe
p286
aVwe
p287
aVnavig
p288
aVdiffer
p289
aVhow
p290
aVstep
p291
aVbase
p292
aVsolv
p293
aVby
p294
aVaddit
p295
aVon
p296
aVcapabl
p297
aVof
p298
aVimplement
p299
aVinteract
p300
aVvia
p301
aVepisod
p302
aVselect
p303
aVuse
p304
aVsupport
p305
aVsystem
p306
aVnext
p307
aVcompon
p308
aVtutor
p309
aVtype
p310
aVdure
p311
aVthat
p312
aVcurriculum
p313
aVit
p314
aVlink
p315
aVdemand
p316
aVthese
p317
aVannot
p318
aVcan
p319
aVlearn
p320
aVproblem
p321
aVresult
p322
aVand
p323
aVfeatur
p324
aVis
p325
aVdiagnosi
p326
aVsite
p327
aVtextbook
p328
aVan
p329
aVii
p330
aVas
p331
aVin
p332
aVdevelop
p333
aVtechniqu
p334
aValso
p335
aVeffect
p336
aVmost
p337
aVuser
p338
aVstudi
p339
aVdemonstr
p340
aVa
aVtask
p341
aVemerg
p342
aVcombin
p343
aVmodel
p344
as.